; ModuleID = 'source-C-CXX/24/1094.cpp'
source_filename = "source-C-CXX/24/1094.cpp"
target datalayout = "e-m:e-p270:32:32-p271:32:32-p272:64:64-i64:64-f80:128-n8:16:32:64-S128"
target triple = "x86_64-pc-linux-gnu"

%"class.std::ios_base::Init" = type { i8 }
%"class.std::basic_istream" = type { i32 (...)**, i64, %"class.std::basic_ios" }
%"class.std::basic_ios" = type { %"class.std::ios_base", %"class.std::basic_ostream"*, i8, i8, %"class.std::basic_streambuf"*, %"class.std::ctype"*, %"class.std::num_put"*, %"class.std::num_get"* }
%"class.std::ios_base" = type { i32 (...)**, i64, i64, i32, i32, i32, %"struct.std::ios_base::_Callback_list"*, %"struct.std::ios_base::_Words", [8 x %"struct.std::ios_base::_Words"], i32, %"struct.std::ios_base::_Words"*, %"class.std::locale" }
%"struct.std::ios_base::_Callback_list" = type { %"struct.std::ios_base::_Callback_list"*, void (i32, %"class.std::ios_base"*, i32)*, i32, i32 }
%"struct.std::ios_base::_Words" = type { i8*, i64 }
%"class.std::locale" = type { %"class.std::locale::_Impl"* }
%"class.std::locale::_Impl" = type { i32, %"class.std::locale::facet"**, i64, %"class.std::locale::facet"**, i8** }
%"class.std::locale::facet" = type <{ i32 (...)**, i32, [4 x i8] }>
%"class.std::basic_ostream" = type { i32 (...)**, %"class.std::basic_ios" }
%"class.std::basic_streambuf" = type { i32 (...)**, i8*, i8*, i8*, i8*, i8*, i8*, %"class.std::locale" }
%"class.std::ctype" = type <{ %"class.std::locale::facet.base", [4 x i8], %struct.__locale_struct*, i8, [7 x i8], i32*, i32*, i16*, i8, [256 x i8], [256 x i8], i8, [6 x i8] }>
%"class.std::locale::facet.base" = type <{ i32 (...)**, i32 }>
%struct.__locale_struct = type { [13 x %struct.__locale_data*], i16*, i32*, i32*, [13 x i8*] }
%struct.__locale_data = type opaque
%"class.std::num_put" = type { %"class.std::locale::facet.base", [4 x i8] }
%"class.std::num_get" = type { %"class.std::locale::facet.base", [4 x i8] }

@_ZStL8__ioinit = internal global %"class.std::ios_base::Init" zeroinitializer, align 1
@__dso_handle = external hidden global i8
@_ZSt3cin = external global %"class.std::basic_istream", align 8
@_ZSt4cout = external global %"class.std::basic_ostream", align 8
@llvm.global_ctors = appending global [1 x { i32, void ()*, i8* }] [{ i32, void ()*, i8* } { i32 65535, void ()* @_GLOBAL__sub_I_1094.cpp, i8* null }]

declare void @_ZNSt8ios_base4InitC1Ev(%"class.std::ios_base::Init"* nonnull align 1 dereferenceable(1)) unnamed_addr #0

; Function Attrs: nounwind
declare void @_ZNSt8ios_base4InitD1Ev(%"class.std::ios_base::Init"* nonnull align 1 dereferenceable(1)) unnamed_addr #1

; Function Attrs: nofree nounwind
declare i32 @__cxa_atexit(void (i8*)*, i8*, i8*) local_unnamed_addr #2

; Function Attrs: mustprogress norecurse sspstrong uwtable
define dso_local i32 @main() local_unnamed_addr #3 {
  %1 = alloca [50 x i32], align 16
  %2 = alloca i32, align 4
  %3 = bitcast [50 x i32]* %1 to i8*
  call void @llvm.lifetime.start.p0i8(i64 200, i8* nonnull %3) #8
  call void @llvm.memset.p0i8.i64(i8* noundef nonnull align 16 dereferenceable(200) %3, i8 0, i64 200, i1 false)
  %4 = bitcast i32* %2 to i8*
  call void @llvm.lifetime.start.p0i8(i64 4, i8* nonnull %4) #8
  %5 = call nonnull align 8 dereferenceable(16) %"class.std::basic_istream"* @_ZNSirsERi(%"class.std::basic_istream"* nonnull align 8 dereferenceable(16) @_ZSt3cin, i32* nonnull align 4 dereferenceable(4) %2)
  %6 = getelementptr inbounds [50 x i32], [50 x i32]* %1, i64 0, i64 1
  store i32 2, i32* %6, align 4, !tbaa !5
  %7 = load i32, i32* %2, align 4, !tbaa !5
  %8 = icmp sgt i32 %7, 1
  br i1 %8, label %9, label %46

9:                                                ; preds = %0
  %10 = add nsw i32 %7, -1
  %11 = getelementptr inbounds [50 x i32], [50 x i32]* %1, i64 0, i64 0
  br label %12

12:                                               ; preds = %9, %43
  %13 = phi i32 [ %44, %43 ], [ 0, %9 ]
  br label %14

14:                                               ; preds = %14, %12
  %15 = phi i64 [ %19, %14 ], [ 49, %12 ]
  %16 = getelementptr inbounds [50 x i32], [50 x i32]* %1, i64 0, i64 %15
  %17 = load i32, i32* %16, align 4, !tbaa !5
  %18 = icmp eq i32 %17, 0
  %19 = add i64 %15, -1
  br i1 %18, label %14, label %20, !llvm.loop !9

20:                                               ; preds = %14
  %21 = trunc i64 %15 to i32
  %22 = icmp slt i32 %21, 0
  br i1 %22, label %43, label %23

23:                                               ; preds = %20
  %24 = add i64 %15, 2
  %25 = and i64 %24, 4294967295
  %26 = load i32, i32* %11, align 16, !tbaa !5
  br label %27

27:                                               ; preds = %23, %39
  %28 = phi i32 [ %26, %23 ], [ %40, %39 ]
  %29 = phi i64 [ 1, %23 ], [ %41, %39 ]
  %30 = getelementptr inbounds [50 x i32], [50 x i32]* %1, i64 0, i64 %29
  %31 = load i32, i32* %30, align 4, !tbaa !5
  %32 = shl nsw i32 %31, 1
  store i32 %32, i32* %30, align 4, !tbaa !5
  %33 = icmp sgt i32 %28, 9
  br i1 %33, label %34, label %39

34:                                               ; preds = %27
  %35 = add nsw i64 %29, -1
  %36 = getelementptr inbounds [50 x i32], [50 x i32]* %1, i64 0, i64 %35
  %37 = add nsw i32 %28, -10
  store i32 %37, i32* %36, align 4, !tbaa !5
  %38 = or i32 %32, 1
  store i32 %38, i32* %30, align 4, !tbaa !5
  br label %39

39:                                               ; preds = %27, %34
  %40 = phi i32 [ %32, %27 ], [ %38, %34 ]
  %41 = add nuw nsw i64 %29, 1
  %42 = icmp eq i64 %41, %25
  br i1 %42, label %43, label %27, !llvm.loop !11

43:                                               ; preds = %39, %20
  %44 = add nuw nsw i32 %13, 1
  %45 = icmp eq i32 %44, %10
  br i1 %45, label %46, label %12, !llvm.loop !12

46:                                               ; preds = %43, %0
  %47 = icmp eq i32 %7, 0
  br i1 %47, label %48, label %78

48:                                               ; preds = %46
  %49 = call nonnull align 8 dereferenceable(8) %"class.std::basic_ostream"* @_ZNSolsEi(%"class.std::basic_ostream"* nonnull align 8 dereferenceable(8) @_ZSt4cout, i32 1)
  %50 = bitcast %"class.std::basic_ostream"* %49 to i8**
  %51 = load i8*, i8** %50, align 8, !tbaa !13
  %52 = getelementptr i8, i8* %51, i64 -24
  %53 = bitcast i8* %52 to i64*
  %54 = load i64, i64* %53, align 8
  %55 = bitcast %"class.std::basic_ostream"* %49 to i8*
  %56 = add nsw i64 %54, 240
  %57 = getelementptr inbounds i8, i8* %55, i64 %56
  %58 = bitcast i8* %57 to %"class.std::ctype"**
  %59 = load %"class.std::ctype"*, %"class.std::ctype"** %58, align 8, !tbaa !15
  %60 = icmp eq %"class.std::ctype"* %59, null
  br i1 %60, label %61, label %62

61:                                               ; preds = %48
  call void @_ZSt16__throw_bad_castv() #9
  unreachable

62:                                               ; preds = %48
  %63 = getelementptr inbounds %"class.std::ctype", %"class.std::ctype"* %59, i64 0, i32 8
  %64 = load i8, i8* %63, align 8, !tbaa !19
  %65 = icmp eq i8 %64, 0
  br i1 %65, label %69, label %66

66:                                               ; preds = %62
  %67 = getelementptr inbounds %"class.std::ctype", %"class.std::ctype"* %59, i64 0, i32 9, i64 10
  %68 = load i8, i8* %67, align 1, !tbaa !21
  br label %75

69:                                               ; preds = %62
  call void @_ZNKSt5ctypeIcE13_M_widen_initEv(%"class.std::ctype"* nonnull align 8 dereferenceable(570) %59)
  %70 = bitcast %"class.std::ctype"* %59 to i8 (%"class.std::ctype"*, i8)***
  %71 = load i8 (%"class.std::ctype"*, i8)**, i8 (%"class.std::ctype"*, i8)*** %70, align 8, !tbaa !13
  %72 = getelementptr inbounds i8 (%"class.std::ctype"*, i8)*, i8 (%"class.std::ctype"*, i8)** %71, i64 6
  %73 = load i8 (%"class.std::ctype"*, i8)*, i8 (%"class.std::ctype"*, i8)** %72, align 8
  %74 = call signext i8 %73(%"class.std::ctype"* nonnull align 8 dereferenceable(570) %59, i8 signext 10)
  br label %75

75:                                               ; preds = %66, %69
  %76 = phi i8 [ %68, %66 ], [ %74, %69 ]
  %77 = call nonnull align 8 dereferenceable(8) %"class.std::basic_ostream"* @_ZNSo3putEc(%"class.std::basic_ostream"* nonnull align 8 dereferenceable(8) %49, i8 signext %76)
  br label %123

78:                                               ; preds = %46, %78
  %79 = phi i64 [ %83, %78 ], [ 49, %46 ]
  %80 = getelementptr inbounds [50 x i32], [50 x i32]* %1, i64 0, i64 %79
  %81 = load i32, i32* %80, align 4, !tbaa !5
  %82 = icmp eq i32 %81, 0
  %83 = add i64 %79, -1
  br i1 %82, label %78, label %84, !llvm.loop !22

84:                                               ; preds = %78
  %85 = trunc i64 %79 to i32
  %86 = icmp sgt i32 %85, 0
  br i1 %86, label %87, label %96

87:                                               ; preds = %84
  %88 = and i64 %79, 4294967295
  br label %89

89:                                               ; preds = %87, %89
  %90 = phi i64 [ %88, %87 ], [ %95, %89 ]
  %91 = getelementptr inbounds [50 x i32], [50 x i32]* %1, i64 0, i64 %90
  %92 = load i32, i32* %91, align 4, !tbaa !5
  %93 = call nonnull align 8 dereferenceable(8) %"class.std::basic_ostream"* @_ZNSolsEi(%"class.std::basic_ostream"* nonnull align 8 dereferenceable(8) @_ZSt4cout, i32 %92)
  %94 = icmp sgt i64 %90, 1
  %95 = add nsw i64 %90, -1
  br i1 %94, label %89, label %96, !llvm.loop !23

96:                                               ; preds = %89, %84
  %97 = load i8*, i8** bitcast (%"class.std::basic_ostream"* @_ZSt4cout to i8**), align 8, !tbaa !13
  %98 = getelementptr i8, i8* %97, i64 -24
  %99 = bitcast i8* %98 to i64*
  %100 = load i64, i64* %99, align 8
  %101 = add nsw i64 %100, 240
  %102 = getelementptr inbounds i8, i8* bitcast (%"class.std::basic_ostream"* @_ZSt4cout to i8*), i64 %101
  %103 = bitcast i8* %102 to %"class.std::ctype"**
  %104 = load %"class.std::ctype"*, %"class.std::ctype"** %103, align 8, !tbaa !15
  %105 = icmp eq %"class.std::ctype"* %104, null
  br i1 %105, label %106, label %107

106:                                              ; preds = %96
  call void @_ZSt16__throw_bad_castv() #9
  unreachable

107:                                              ; preds = %96
  %108 = getelementptr inbounds %"class.std::ctype", %"class.std::ctype"* %104, i64 0, i32 8
  %109 = load i8, i8* %108, align 8, !tbaa !19
  %110 = icmp eq i8 %109, 0
  br i1 %110, label %114, label %111

111:                                              ; preds = %107
  %112 = getelementptr inbounds %"class.std::ctype", %"class.std::ctype"* %104, i64 0, i32 9, i64 10
  %113 = load i8, i8* %112, align 1, !tbaa !21
  br label %120

114:                                              ; preds = %107
  call void @_ZNKSt5ctypeIcE13_M_widen_initEv(%"class.std::ctype"* nonnull align 8 dereferenceable(570) %104)
  %115 = bitcast %"class.std::ctype"* %104 to i8 (%"class.std::ctype"*, i8)***
  %116 = load i8 (%"class.std::ctype"*, i8)**, i8 (%"class.std::ctype"*, i8)*** %115, align 8, !tbaa !13
  %117 = getelementptr inbounds i8 (%"class.std::ctype"*, i8)*, i8 (%"class.std::ctype"*, i8)** %116, i64 6
  %118 = load i8 (%"class.std::ctype"*, i8)*, i8 (%"class.std::ctype"*, i8)** %117, align 8
  %119 = call signext i8 %118(%"class.std::ctype"* nonnull align 8 dereferenceable(570) %104, i8 signext 10)
  br label %120

120:                                              ; preds = %111, %114
  %121 = phi i8 [ %113, %111 ], [ %119, %114 ]
  %122 = call nonnull align 8 dereferenceable(8) %"class.std::basic_ostream"* @_ZNSo3putEc(%"class.std::basic_ostream"* nonnull align 8 dereferenceable(8) @_ZSt4cout, i8 signext %121)
  br label %123

123:                                              ; preds = %120, %75
  %124 = phi %"class.std::basic_ostream"* [ %122, %120 ], [ %77, %75 ]
  %125 = call nonnull align 8 dereferenceable(8) %"class.std::basic_ostream"* @_ZNSo5flushEv(%"class.std::basic_ostream"* nonnull align 8 dereferenceable(8) %124)
  call void @llvm.lifetime.end.p0i8(i64 4, i8* nonnull %4) #8
  call void @llvm.lifetime.end.p0i8(i64 200, i8* nonnull %3) #8
  ret i32 0
}

; Function Attrs: argmemonly mustprogress nofree nosync nounwind willreturn
declare void @llvm.lifetime.start.p0i8(i64 immarg, i8* nocapture) #4

; Function Attrs: argmemonly mustprogress nofree nounwind willreturn writeonly
declare void @llvm.memset.p0i8.i64(i8* nocapture writeonly, i8, i64, i1 immarg) #5

declare nonnull align 8 dereferenceable(16) %"class.std::basic_istream"* @_ZNSirsERi(%"class.std::basic_istream"* nonnull align 8 dereferenceable(16), i32* nonnull align 4 dereferenceable(4)) local_unnamed_addr #0

declare nonnull align 8 dereferenceable(8) %"class.std::basic_ostream"* @_ZNSolsEi(%"class.std::basic_ostream"* nonnull align 8 dereferenceable(8), i32) local_unnamed_addr #0

; Function Attrs: argmemonly mustprogress nofree nosync nounwind willreturn
declare void @llvm.lifetime.end.p0i8(i64 immarg, i8* nocapture) #4

declare nonnull align 8 dereferenceable(8) %"class.std::basic_ostream"* @_ZNSo3putEc(%"class.std::basic_ostream"* nonnull align 8 dereferenceable(8), i8 signext) local_unnamed_addr #0

declare nonnull align 8 dereferenceable(8) %"class.std::basic_ostream"* @_ZNSo5flushEv(%"class.std::basic_ostream"* nonnull align 8 dereferenceable(8)) local_unnamed_addr #0

; Function Attrs: noreturn
declare void @_ZSt16__throw_bad_castv() local_unnamed_addr #6

declare void @_ZNKSt5ctypeIcE13_M_widen_initEv(%"class.std::ctype"* nonnull align 8 dereferenceable(570)) local_unnamed_addr #0

; Function Attrs: sspstrong uwtable
define internal void @_GLOBAL__sub_I_1094.cpp() #7 section ".text.startup" {
  tail call void @_ZNSt8ios_base4InitC1Ev(%"class.std::ios_base::Init"* nonnull align 1 dereferenceable(1) @_ZStL8__ioinit)
  %1 = tail call i32 @__cxa_atexit(void (i8*)* bitcast (void (%"class.std::ios_base::Init"*)* @_ZNSt8ios_base4InitD1Ev to void (i8*)*), i8* getelementptr inbounds (%"class.std::ios_base::Init", %"class.std::ios_base::Init"* @_ZStL8__ioinit, i64 0, i32 0), i8* nonnull @__dso_handle) #8
  ret void
}


!llvm.module.flags = !{!0, !1, !2, !3}
!llvm.ident = !{!4}

!0 = !{i32 1, !"wchar_size", i32 4}
!1 = !{i32 7, !"PIC Level", i32 2}
!2 = !{i32 7, !"PIE Level", i32 2}
!3 = !{i32 7, !"uwtable", i32 1}
!4 = !{!"clang version 13.0.0"}
!5 = !{!6, !6, i64 0}
!6 = !{!"int", !7, i64 0}
!7 = !{!"omnipotent char", !8, i64 0}
!8 = !{!"Simple C++ TBAA"}
!9 = distinct !{!9, !10}
!10 = !{!"llvm.loop.mustprogress"}
!11 = distinct !{!11, !10}
!12 = distinct !{!12, !10}
!13 = !{!14, !14, i64 0}
!14 = !{!"vtable pointer", !8, i64 0}
!15 = !{!16, !17, i64 240}
!16 = !{!"_ZTSSt9basic_iosIcSt11char_traitsIcEE", !17, i64 216, !7, i64 224, !18, i64 225, !17, i64 232, !17, i64 240, !17, i64 248, !17, i64 256}
!17 = !{!"any pointer", !7, i64 0}
!18 = !{!"bool", !7, i64 0}
!19 = !{!20, !7, i64 56}
!20 = !{!"_ZTSSt5ctypeIcE", !17, i64 16, !18, i64 24, !17, i64 32, !17, i64 40, !17, i64 48, !7, i64 56, !7, i64 57, !7, i64 313, !7, i64 569}
!21 = !{!7, !7, i64 0}
!22 = distinct !{!22, !10}
!23 = distinct !{!23, !10}
